; Function Attrs: nounwind uwtable
define hidden void @png_set_tRNS_to_alpha(ptr noalias noundef %0) local_unnamed_addr #0 {
  %.not.i = icmp eq ptr %0, null
  br i1 %.not.i, label %png_rtran_ok.exit.thread, label %2

2:                                                ; preds = %1
  %3 = getelementptr inbounds i8, ptr %0, i64 296
  %4 = load i32, ptr %3, align 8, !alias.scope !75
  %5 = and i32 %4, 64
  %.not8.i = icmp eq i32 %5, 0
  br i1 %.not8.i, label %7, label %6

6:                                                ; preds = %2
  tail call void @png_app_error(ptr noundef nonnull %0, ptr noundef nonnull @.str.19) #11
  br label %png_rtran_ok.exit.thread

7:                                                ; preds = %2
  %8 = or i32 %4, 16384
  store i32 %8, ptr %3, align 8, !alias.scope !75
  %9 = getelementptr inbounds i8, ptr %0, i64 300
  %10 = load i32, ptr %9, align 4
  %11 = or i32 %10, 33558528
  store i32 %11, ptr %9, align 4
  br label %png_rtran_ok.exit.thread

png_rtran_ok.exit.thread:                         ; preds = %1, %6, %7
  ret void
}